; Function Attrs: mustprogress uwtable
define hidden noundef ptr @_Z30mk_bit_blaster_model_converterR11ast_managerRK7obj_mapI9func_declP4exprERK10ptr_vectorIS2_E(ptr noundef nonnull align 8 dereferenceable(976) %0, ptr noundef nonnull align 8 dereferenceable(24) %1, ptr noundef nonnull align 8 dereferenceable(8) %2) local_unnamed_addr #3 {
  %4 = getelementptr inbounds nuw i8, ptr %1, i64 12
  %5 = load i32, ptr %4, align 4, !tbaa !3
  %6 = icmp eq i32 %5, 0
  br i1 %6, label %9, label %7

7:                                                ; preds = %3
  %8 = tail call noalias noundef ptr @_ZN6memory8allocateEm(i64 noundef 80)
  tail call void @_ZN27bit_blaster_model_converterILb1EEC2ER11ast_managerRK7obj_mapI9func_declP4exprERK10ptr_vectorIS4_E(ptr noundef nonnull align 8 dereferenceable(80) %8, ptr noundef nonnull align 8 dereferenceable(976) %0, ptr noundef nonnull align 8 dereferenceable(24) %1, ptr noundef nonnull align 8 dereferenceable(8) %2)
  br label %9

9:                                                ; preds = %3, %7
  %10 = phi ptr [ %8, %7 ], [ null, %3 ]
  ret ptr %10
}